; Function Attrs: mustprogress uwtable
define dso_local void @_ZN21btConvexInternalShapeC2Ev(ptr noundef nonnull align 8 dereferenceable(72) %0) unnamed_addr #0 align 2 personality ptr @__gxx_personality_v0 {
  tail call void @_ZN13btConvexShapeC2Ev(ptr noundef nonnull align 8 dereferenceable(32) %0)
  store ptr getelementptr inbounds nuw inrange(-16, 184) (i8, ptr @_ZTV21btConvexInternalShape, i64 16), ptr %0, align 8, !tbaa !4
  %2 = getelementptr inbounds nuw i8, ptr %0, i64 32
  store float 1.000000e+00, ptr %2, align 8, !tbaa !7
  %3 = getelementptr inbounds nuw i8, ptr %0, i64 36
  store float 1.000000e+00, ptr %3, align 4, !tbaa !7
  %4 = getelementptr inbounds nuw i8, ptr %0, i64 40
  store float 1.000000e+00, ptr %4, align 8, !tbaa !7
  %5 = getelementptr inbounds nuw i8, ptr %0, i64 44
  store float 0.000000e+00, ptr %5, align 4, !tbaa !7
  %6 = getelementptr inbounds nuw i8, ptr %0, i64 64
  store float 0x3FA47AE140000000, ptr %6, align 8, !tbaa !10
  ret void
}